; Function Attrs: nounwind uwtable
define hidden ptr @SDL_GetTLS_REAL(ptr noundef %0) local_unnamed_addr #0 {
  %2 = icmp eq ptr %0, null
  br i1 %2, label %3, label %5

3:                                                ; preds = %1
  %4 = tail call zeroext i1 (ptr, ...) @SDL_SetError_REAL(ptr noundef nonnull @.str, ptr noundef nonnull @.str.1) #6
  br label %18

5:                                                ; preds = %1
  %6 = tail call i32 @SDL_GetAtomicInt_REAL(ptr noundef nonnull %0) #6
  %7 = add nsw i32 %6, -1
  %8 = tail call ptr @SDL_SYS_GetTLSData() #6
  %9 = icmp eq ptr %8, null
  %10 = icmp slt i32 %6, 1
  %or.cond = select i1 %9, i1 true, i1 %10
  br i1 %or.cond, label %18, label %11

11:                                               ; preds = %5
  %12 = load i32, ptr %8, align 8
  %.not.not = icmp sgt i32 %6, %12
  br i1 %.not.not, label %18, label %13

13:                                               ; preds = %11
  %14 = getelementptr inbounds nuw i8, ptr %8, i64 8
  %15 = zext nneg i32 %7 to i64
  %16 = getelementptr inbounds nuw [1 x %struct.anon], ptr %14, i64 0, i64 %15
  %17 = load ptr, ptr %16, align 8
  br label %18

18:                                               ; preds = %5, %11, %13, %3
  %.0 = phi ptr [ null, %3 ], [ %17, %13 ], [ null, %11 ], [ null, %5 ]
  ret ptr %.0
}